Certificate:
    Data:
        Version: 3 (0x2)
        Serial Number:
            77:1a:92:73:d0:f4:60:72:38:59:72:c3:cf:c5:c6:e1
        Signature Algorithm: sha256WithRSAEncryption
        Issuer: CN=MyHome CyberSecurity G2
        Validity
            Not Before: May  5 18:20:45 2021 GMT
            Not After : Aug  8 18:20:45 2023 GMT
        Subject: C=ES, L=Barcelona, O=CyberHome Ltd, CN=misp.local
        Subject Public Key Info:
            Public Key Algorithm: rsaEncryption
                RSA Public-Key: (2048 bit)
                Modulus:
                    00:c1:e5:e4:c4:1a:a0:ef:5e:c8:be:b9:09:d2:d1:
                    bf:f8:fb:41:fa:b4:f1:7e:66:68:bb:c4:d1:44:62:
                    82:ff:a8:d2:4d:f9:08:e1:19:33:58:50:fb:ae:9d:
                    af:ff:59:eb:9d:ff:86:fd:05:48:99:65:be:37:61:
                    18:eb:b5:5e:3e:a9:e6:9c:3a:5d:23:14:a9:02:36:
                    4c:b0:be:01:15:85:a8:44:74:d4:f5:e8:6d:2b:a1:
                    5c:d5:1a:72:fc:44:4f:0c:3d:4f:4c:d8:1b:b6:98:
                    f8:cb:9e:bc:02:f0:f7:c6:62:4b:11:42:cd:c6:ee:
                    64:f9:34:5b:44:52:c5:54:24:36:1e:10:de:c8:1c:
                    5f:3c:d3:9c:a8:d6:51:41:9f:6f:86:6a:63:18:88:
                    2f:90:5f:f6:19:6a:65:96:ec:eb:99:63:fa:d3:e3:
                    02:b2:ff:d9:2b:04:f1:92:6f:24:a7:aa:10:2d:6a:
                    9f:00:74:a3:0a:38:b2:6b:f5:a8:ee:73:cc:f0:e3:
                    de:8d:cb:ec:41:b9:e0:61:df:6d:f8:a5:99:2a:66:
                    74:37:76:ef:55:8a:90:e3:64:28:d5:8d:51:02:19:
                    cf:b0:4e:07:94:6c:8a:a7:b1:5e:fd:89:04:40:fe:
                    bf:72:87:2c:cb:a2:34:41:56:6c:c8:91:77:06:27:
                    eb:93
                Exponent: 65537 (0x10001)
        X509v3 extensions:
            X509v3 CRL Distribution Points: 

                Full Name:
                  URI:http://crl.hogar/pki/ca.crl

            X509v3 Basic Constraints: 
                CA:FALSE
            X509v3 Subject Key Identifier: 
                42:EA:CB:58:2F:E0:73:26:74:F9:D8:B8:25:77:4E:39:2E:0A:3A:97
            X509v3 Authority Key Identifier: 
                keyid:60:26:06:BD:33:26:D0:77:3F:7E:08:CB:67:8A:E7:F3:EF:A6:76:AF
                DirName:/CN=MyHome CyberSecurity Root CA
                serial:E5:E5:4B:0A:9C:03:A5:C1:13:43:21:61:53:8A:66:94

            X509v3 Extended Key Usage: 
                TLS Web Server Authentication
            X509v3 Key Usage: 
                Digital Signature, Key Encipherment
            X509v3 Subject Alternative Name: 
                DNS:misp.cyberhome.es
    Signature Algorithm: sha256WithRSAEncryption
         13:cc:7b:0a:e7:ec:47:e5:9f:56:9d:39:57:e5:5e:41:15:80:
         02:7e:b6:f6:3e:96:98:0a:51:51:46:61:e8:c6:f0:0d:5c:4d:
         b6:67:68:9f:16:67:03:b8:fe:44:d6:68:05:6d:33:73:c7:c4:
         e5:a8:89:bb:53:8a:db:d7:5b:aa:75:ce:57:01:30:06:bb:be:
         19:c3:38:9d:c9:bc:65:25:2c:4e:68:cd:c4:72:e0:f3:0b:4c:
         61:95:8f:df:56:6f:53:b9:82:c1:b1:8e:af:ed:96:c3:57:1a:
         26:54:b8:11:f9:90:0a:7d:1f:73:5f:98:02:40:50:c7:6f:05:
         9a:20:54:ff:3b:c4:97:37:ef:cb:de:a9:4b:72:09:d5:9d:c4:
         9a:87:07:95:6a:2b:44:5c:63:0d:c0:97:64:84:59:3a:74:eb:
         5a:31:e7:be:a5:d1:64:cc:4e:2d:d3:fd:bd:a9:f5:d1:ea:ad:
         98:ec:68:3b:9e:22:2f:50:9b:25:35:f0:3b:14:b2:9c:16:94:
         d8:3c:82:85:1e:10:16:af:50:28:42:5d:b3:23:bd:06:ab:a1:
         d8:2a:76:f8:ce:8e:4c:fd:ea:ed:5a:f4:ee:65:53:9f:d6:8f:
         0f:dd:37:f3:ad:05:62:59:01:d6:11:8a:19:31:df:91:d9:91:
         87:82:74:45:48:eb:99:d7:8c:61:5e:96:81:8c:45:59:21:16:
         65:79:2f:83:4f:69:bf:bb:e5:37:81:47:5a:68:29:17:ac:73:
         26:fa:e7:4e:8f:2f:30:fc:6c:57:cd:e5:56:11:87:df:10:6c:
         62:50:6b:9f:61:9c:4b:72:72:d4:d4:0d:80:be:b3:b8:28:46:
         c2:a8:bb:54:e1:0b:6e:70:18:ab:74:1b:6b:a9:3a:a9:61:74:
         67:00:37:d3:59:f0:64:b1:16:54:9c:aa:39:df:fb:4f:a9:88:
         ed:f9:6f:bd:b9:8d:5d:5a:b4:34:e9:dc:7c:44:f4:ab:b5:93:
         90:ec:12:d4:e5:7e:80:11:27:c5:f7:2d:31:11:bf:8f:ca:82:
         5d:2e:7e:91:91:e5:d9:23:bf:1d:ee:65:88:56:55:77:61:78:
         11:ad:0c:2b:fb:91:9b:1a:80:dd:a9:cf:fa:b3:a8:fb:be:69:
         9c:dd:92:51:9b:99:56:7c:e6:62:5e:fc:45:c3:8f:95:14:16:
         4b:24:ba:71:6d:2a:eb:32:0f:7e:76:dc:c5:e5:59:dd:3f:56:
         75:d3:47:0b:5d:31:02:33:91:c5:62:93:32:40:b6:ec:d4:59:
         be:21:b3:a1:93:68:5b:49:f6:07:a3:6f:56:f8:56:8e:c9:8f:
         93:bf:0d:13:ca:f8:11:b8
-----BEGIN CERTIFICATE-----
MIIE9zCCAt+gAwIBAgIQdxqSc9D0YHI4WXLDz8XG4TANBgkqhkiG9w0BAQsFADAi
MSAwHgYDVQQDDBdNeUhvbWUgQ3liZXJTZWN1cml0eSBHMjAeFw0yMTA1MDUxODIw
NDVaFw0yMzA4MDgxODIwNDVaME4xCzAJBgNVBAYTAkVTMRIwEAYDVQQHDAlCYXJj
ZWxvbmExFjAUBgNVBAoMDUN5YmVySG9tZSBMdGQxEzARBgNVBAMMCm1pc3AubG9j
YWwwggEiMA0GCSqGSIb3DQEBAQUAA4IBDwAwggEKAoIBAQDB5eTEGqDvXsi+uQnS
0b/4+0H6tPF+Zmi7xNFEYoL/qNJN+QjhGTNYUPuuna//Weud/4b9BUiZZb43YRjr
tV4+qeacOl0jFKkCNkywvgEVhahEdNT16G0roVzVGnL8RE8MPU9M2Bu2mPjLnrwC
8PfGYksRQs3G7mT5NFtEUsVUJDYeEN7IHF8805yo1lFBn2+GamMYiC+QX/YZamWW
7OuZY/rT4wKy/9krBPGSbySnqhAtap8AdKMKOLJr9ajuc8zw496Ny+xBueBh3234
pZkqZnQ3du9VipDjZCjVjVECGc+wTgeUbIqnsV79iQRA/r9yhyzLojRBVmzIkXcG
J+uTAgMBAAGjgfwwgfkwLAYDVR0fBCUwIzAhoB+gHYYbaHR0cDovL2NybC5ob2dh
ci9wa2kvY2EuY3JsMAkGA1UdEwQCMAAwHQYDVR0OBBYEFELqy1gv4HMmdPnYuCV3
TjkuCjqXMF8GA1UdIwRYMFaAFGAmBr0zJtB3P34Iy2eK5/PvpnavoSukKTAnMSUw
IwYDVQQDDBxNeUhvbWUgQ3liZXJTZWN1cml0eSBSb290IENBghEA5eVLCpwDpcET
QyFhU4pmlDATBgNVHSUEDDAKBggrBgEFBQcDATALBgNVHQ8EBAMCBaAwHAYDVR0R
BBUwE4IRbWlzcC5jeWJlcmhvbWUuZXMwDQYJKoZIhvcNAQELBQADggIBABPMewrn
7Efln1adOVflXkEVgAJ+tvY+lpgKUVFGYejG8A1cTbZnaJ8WZwO4/kTWaAVtM3PH
xOWoibtTitvXW6p1zlcBMAa7vhnDOJ3JvGUlLE5ozcRy4PMLTGGVj99Wb1O5gsGx
jq/tlsNXGiZUuBH5kAp9H3NfmAJAUMdvBZogVP87xJc378veqUtyCdWdxJqHB5Vq
K0RcYw3Al2SEWTp061ox576l0WTMTi3T/b2p9dHqrZjsaDueIi9QmyU18DsUspwW
lNg8goUeEBavUChCXbMjvQarodgqdvjOjkz96u1a9O5lU5/Wjw/dN/OtBWJZAdYR
ihkx35HZkYeCdEVI65nXjGFeloGMRVkhFmV5L4NPab+75TeBR1poKRescyb6506P
LzD8bFfN5VYRh98QbGJQa59hnEtyctTUDYC+s7goRsKou1ThC25wGKt0G2upOqlh
dGcAN9NZ8GSxFlScqjnf+0+piO35b725jV1atDTp3HxE9Ku1k5DsEtTlfoARJ8X3
LTERv4/Kgl0ufpGR5dkjvx3uZYhWVXdheBGtDCv7kZsagN2pz/qzqPu+aZzdklGb
mVZ85mJe/EXDj5UUFkskunFtKusyD3523MXlWd0/VnXTRwtdMQIzkcVikzJAtuzU
Wb4hs6GTaFtJ9gejb1b4Vo7Jj5O/DRPK+BG4
-----END CERTIFICATE-----
