Certificate:
    Data:
        Version: 3 (0x2)
        Serial Number:
            1a:69:49:2a:d3:ab:e5:96:80:2d:bb:74:e5:86:ea:79
        Signature Algorithm: sha256WithRSAEncryption
        Issuer: CN=MyHome CyberSecurity G2
        Validity
            Not Before: Apr 23 11:43:51 2021 GMT
            Not After : Jul 27 11:43:51 2023 GMT
        Subject: C=ES, L=Barcelona, O=CyberHome Ltd, CN=admin
        Subject Public Key Info:
            Public Key Algorithm: rsaEncryption
                RSA Public-Key: (2048 bit)
                Modulus:
                    00:c2:a3:ad:6d:4b:2f:3c:b3:f7:17:6b:89:ea:f8:
                    ca:e8:ba:7c:fa:87:48:f4:29:23:61:bb:b7:3d:67:
                    6d:f1:29:f3:a9:85:49:32:d1:65:ad:05:4c:0c:ff:
                    97:d4:69:0a:e2:9c:2e:a2:dc:f4:f0:e1:23:21:88:
                    b1:72:75:2c:f0:c5:18:8a:3f:ce:59:43:1a:d4:ec:
                    a7:eb:27:14:3f:15:ba:2f:c6:aa:75:93:90:4d:27:
                    2c:14:60:2c:b9:3e:77:9b:75:2a:98:23:8e:a7:cf:
                    d3:ad:a2:66:07:c5:5a:2c:2d:2e:a4:c6:ce:20:87:
                    b7:6c:30:b1:b2:3a:b5:d0:ea:70:aa:09:a5:3e:60:
                    66:7d:ac:d9:55:5f:bc:d0:d0:f4:6d:7f:67:66:72:
                    3a:b8:28:cd:64:c7:59:77:b0:86:88:e1:a0:5b:78:
                    ae:2f:d2:23:14:80:57:f4:4d:2e:4f:17:09:3d:92:
                    cb:61:2d:ca:e5:7b:74:76:bc:bb:e4:b9:ce:7b:65:
                    14:69:42:a7:b8:6b:d8:ce:05:90:cf:0d:d2:5e:cb:
                    2b:c4:7b:69:28:c4:85:68:d5:e7:07:f6:c9:5f:b8:
                    9c:30:27:a7:15:f0:21:72:a9:3d:ce:5b:ac:96:e2:
                    96:ea:c6:97:42:6a:d7:fe:14:a5:5f:15:5d:96:1e:
                    6d:f5
                Exponent: 65537 (0x10001)
        X509v3 extensions:
            X509v3 CRL Distribution Points: 

                Full Name:
                  URI:http://crl.hogar/pki/ca.crl

            X509v3 Basic Constraints: 
                CA:FALSE
            X509v3 Subject Key Identifier: 
                71:25:3B:73:68:C4:B8:C7:E8:BD:0B:B3:52:26:E6:99:D3:E1:7C:8A
            X509v3 Authority Key Identifier: 
                keyid:60:26:06:BD:33:26:D0:77:3F:7E:08:CB:67:8A:E7:F3:EF:A6:76:AF
                DirName:/CN=MyHome CyberSecurity Root CA
                serial:E5:E5:4B:0A:9C:03:A5:C1:13:43:21:61:53:8A:66:94

            X509v3 Extended Key Usage: 
                TLS Web Client Authentication
            X509v3 Key Usage: 
                Digital Signature
    Signature Algorithm: sha256WithRSAEncryption
         b7:b8:1d:ee:4d:bc:90:0d:9c:d2:3c:0a:a4:40:f2:c6:cd:f7:
         cf:ea:83:ff:2f:e5:44:b5:f6:ea:32:b5:b0:64:26:1c:9a:6b:
         96:35:09:a4:a3:50:1c:90:93:be:c3:61:07:80:8d:0c:d5:d0:
         6c:06:b5:92:d8:bd:6d:12:8a:79:b1:b0:08:9e:a7:d8:74:7c:
         a5:70:3c:a9:72:57:28:a7:9d:69:23:f5:74:a7:db:08:86:86:
         bd:ea:bc:92:40:d4:b5:d1:5e:90:da:af:16:f2:7b:18:a3:3a:
         7a:fc:6c:45:23:71:b2:a7:b3:de:9b:70:86:f7:ed:21:2c:b0:
         80:2a:d2:f9:ef:4e:8e:32:b0:9c:84:9e:e2:ca:92:79:39:1a:
         da:41:02:a5:91:9e:b8:88:ed:2f:87:37:ed:72:0c:d6:27:bd:
         b0:5e:23:23:98:ba:ef:b7:44:a5:63:63:4b:2e:56:62:5c:33:
         e4:0c:f5:fd:f2:5c:04:a9:1a:89:34:5d:e1:34:43:f8:3d:1f:
         00:ea:0a:c6:e0:50:7f:b2:13:21:57:12:80:51:7f:95:c1:e4:
         93:b6:c7:f5:7f:62:53:07:b4:a2:e0:b4:48:c2:e8:d8:3f:ca:
         2b:d7:4e:28:84:a4:60:ae:7f:cd:e1:7c:fc:8a:80:53:b1:3c:
         52:83:d7:49:a5:7a:d8:36:93:86:c2:20:47:d8:85:65:f7:c7:
         cc:51:43:97:a9:d0:a0:f7:0a:6f:0a:07:25:d8:03:b9:27:87:
         9e:39:88:fe:63:26:79:06:16:93:d8:d1:40:0b:b7:cd:5d:46:
         7b:52:da:0d:f1:7d:59:dc:54:f8:ba:33:73:f0:fd:c2:69:a7:
         e1:80:ef:0a:42:16:c1:2d:9c:81:ce:eb:10:ec:bb:b1:a4:2e:
         fc:2f:a1:bc:82:77:b1:ac:ee:d4:dc:3d:1e:a7:7b:66:5e:ee:
         8f:ef:9a:26:c5:0a:a9:9d:9f:66:f4:6b:7e:e2:85:76:23:df:
         16:f3:4a:c2:4c:cd:09:93:3f:14:c8:b9:62:af:44:af:0c:6f:
         4d:5a:e5:0b:27:27:da:76:91:72:d6:f5:5e:87:63:36:1c:88:
         61:a8:4b:1c:72:e7:e1:32:5a:b2:4a:b3:36:03:88:08:0e:99:
         c0:28:f4:0b:ce:ea:3b:d1:d1:df:7a:79:d8:04:ce:6a:29:1f:
         64:45:8e:36:40:3d:1b:7f:83:5a:f2:42:04:c3:75:07:cb:c8:
         71:42:29:77:d7:66:da:e4:bd:4a:3b:d6:43:7d:8a:8f:e9:c2:
         0c:8f:43:32:ae:30:b8:f9:d5:52:de:ee:40:65:77:41:17:2a:
         39:1d:67:d0:84:b2:4e:74
-----BEGIN CERTIFICATE-----
MIIE1DCCArygAwIBAgIQGmlJKtOr5ZaALbt05YbqeTANBgkqhkiG9w0BAQsFADAi
MSAwHgYDVQQDDBdNeUhvbWUgQ3liZXJTZWN1cml0eSBHMjAeFw0yMTA0MjMxMTQz
NTFaFw0yMzA3MjcxMTQzNTFaMEkxCzAJBgNVBAYTAkVTMRIwEAYDVQQHDAlCYXJj
ZWxvbmExFjAUBgNVBAoMDUN5YmVySG9tZSBMdGQxDjAMBgNVBAMMBWFkbWluMIIB
IjANBgkqhkiG9w0BAQEFAAOCAQ8AMIIBCgKCAQEAwqOtbUsvPLP3F2uJ6vjK6Lp8
+odI9CkjYbu3PWdt8SnzqYVJMtFlrQVMDP+X1GkK4pwuotz08OEjIYixcnUs8MUY
ij/OWUMa1Oyn6ycUPxW6L8aqdZOQTScsFGAsuT53m3UqmCOOp8/TraJmB8VaLC0u
pMbOIIe3bDCxsjq10OpwqgmlPmBmfazZVV+80ND0bX9nZnI6uCjNZMdZd7CGiOGg
W3iuL9IjFIBX9E0uTxcJPZLLYS3K5Xt0dry75LnOe2UUaUKnuGvYzgWQzw3SXssr
xHtpKMSFaNXnB/bJX7icMCenFfAhcqk9zlusluKW6saXQmrX/hSlXxVdlh5t9QID
AQABo4HeMIHbMCwGA1UdHwQlMCMwIaAfoB2GG2h0dHA6Ly9jcmwuaG9nYXIvcGtp
L2NhLmNybDAJBgNVHRMEAjAAMB0GA1UdDgQWBBRxJTtzaMS4x+i9C7NSJuaZ0+F8
ijBfBgNVHSMEWDBWgBRgJga9MybQdz9+CMtniufz76Z2r6ErpCkwJzElMCMGA1UE
AwwcTXlIb21lIEN5YmVyU2VjdXJpdHkgUm9vdCBDQYIRAOXlSwqcA6XBE0MhYVOK
ZpQwEwYDVR0lBAwwCgYIKwYBBQUHAwIwCwYDVR0PBAQDAgeAMA0GCSqGSIb3DQEB
CwUAA4ICAQC3uB3uTbyQDZzSPAqkQPLGzffP6oP/L+VEtfbqMrWwZCYcmmuWNQmk
o1AckJO+w2EHgI0M1dBsBrWS2L1tEop5sbAInqfYdHylcDypclcop51pI/V0p9sI
hoa96rySQNS10V6Q2q8W8nsYozp6/GxFI3Gyp7Pem3CG9+0hLLCAKtL5706OMrCc
hJ7iypJ5ORraQQKlkZ64iO0vhzftcgzWJ72wXiMjmLrvt0SlY2NLLlZiXDPkDPX9
8lwEqRqJNF3hNEP4PR8A6grG4FB/shMhVxKAUX+VweSTtsf1f2JTB7Si4LRIwujY
P8or104ohKRgrn/N4Xz8ioBTsTxSg9dJpXrYNpOGwiBH2IVl98fMUUOXqdCg9wpv
Cgcl2AO5J4eeOYj+YyZ5BhaT2NFAC7fNXUZ7UtoN8X1Z3FT4ujNz8P3CaafhgO8K
QhbBLZyBzusQ7LuxpC78L6G8gnexrO7U3D0ep3tmXu6P75omxQqpnZ9m9Gt+4oV2
I98W80rCTM0Jkz8UyLlir0SvDG9NWuULJyfadpFy1vVeh2M2HIhhqEsccufhMlqy
SrM2A4gIDpnAKPQLzuo70dHfennYBM5qKR9kRY42QD0bf4Na8kIEw3UHy8hxQil3
12ba5L1KO9ZDfYqP6cIMj0MyrjC4+dVS3u5AZXdBFyo5HWfQhLJOdA==
-----END CERTIFICATE-----
