Certificate:
    Data:
        Version: 3 (0x2)
        Serial Number:
            77:ae:c7:dd:0a:d7:be:0b:c7:df:e3:bf:42:e6:09:88
        Signature Algorithm: sha256WithRSAEncryption
        Issuer: CN=MyHome CyberSecurity G2
        Validity
            Not Before: Apr 29 22:28:54 2021 GMT
            Not After : Aug  2 22:28:54 2023 GMT
        Subject: C=ES, L=Barcelona, O=CyberHome, CN=filebeat.cyberhome.es
        Subject Public Key Info:
            Public Key Algorithm: rsaEncryption
                RSA Public-Key: (2048 bit)
                Modulus:
                    00:e2:3e:78:98:cb:a5:23:37:a2:46:3c:29:2b:31:
                    99:11:2e:34:73:26:a5:1e:aa:84:3f:4a:77:a5:11:
                    b5:0f:dd:61:dc:87:83:9d:41:c3:02:ff:aa:ea:d1:
                    5f:0b:56:ba:9c:ea:81:90:78:17:c5:ff:f8:0c:7d:
                    81:82:45:b2:d8:53:82:12:1b:9e:09:fc:2e:65:7d:
                    41:3f:93:e9:ef:c9:26:13:4a:18:fc:a6:84:0e:02:
                    cd:fa:c0:5e:c3:63:10:c1:cf:d6:df:3f:f5:bb:bb:
                    d0:c2:7b:03:62:b2:b7:f1:5d:ff:b0:4d:e9:fa:64:
                    9a:35:b4:21:22:e1:81:d1:f0:ad:2d:26:71:a7:63:
                    58:22:76:f7:8b:2c:b3:ed:b3:aa:8e:f7:79:d7:4e:
                    05:a0:9e:76:a9:e5:e6:2d:0c:7b:02:11:ea:07:eb:
                    67:f8:88:94:a4:a6:5a:97:b0:7e:bb:0b:72:dc:1b:
                    19:bd:07:f8:8e:ab:4a:9d:08:99:a9:a0:64:26:c9:
                    55:8d:87:96:39:0f:84:7c:71:5e:87:1a:b6:11:97:
                    9f:18:39:55:88:5f:28:49:38:29:fd:a4:f7:f8:fb:
                    db:f3:fa:2b:a9:2c:70:3c:2c:df:1c:55:64:73:ae:
                    a3:41:69:ab:15:d9:fe:68:06:e6:8e:7e:ac:1a:09:
                    77:0b
                Exponent: 65537 (0x10001)
        X509v3 extensions:
            X509v3 CRL Distribution Points: 

                Full Name:
                  URI:http://crl.hogar/pki/ca.crl

            X509v3 Basic Constraints: 
                CA:FALSE
            X509v3 Subject Key Identifier: 
                A7:C3:DF:E5:AE:2C:D8:44:30:C8:4F:61:D5:F7:21:C6:98:62:EC:F5
            X509v3 Authority Key Identifier: 
                keyid:60:26:06:BD:33:26:D0:77:3F:7E:08:CB:67:8A:E7:F3:EF:A6:76:AF
                DirName:/CN=MyHome CyberSecurity Root CA
                serial:E5:E5:4B:0A:9C:03:A5:C1:13:43:21:61:53:8A:66:94

            X509v3 Extended Key Usage: 
                TLS Web Server Authentication, TLS Web Client Authentication
            X509v3 Key Usage: 
                Digital Signature, Key Encipherment
            X509v3 Subject Alternative Name: 
                DNS:*.wazuh-cluster.wazuh
    Signature Algorithm: sha256WithRSAEncryption
         a3:9b:7a:45:21:83:3a:0a:2e:11:34:12:08:07:60:c3:8a:81:
         18:45:0a:58:b8:16:b8:9c:59:e2:a7:12:a9:37:5c:11:ec:ba:
         3f:08:31:c2:7d:db:04:9e:6a:c1:6d:f2:37:56:b9:b1:12:5a:
         24:94:0a:76:ca:a4:70:07:df:bb:25:da:21:f3:de:64:32:82:
         33:21:c4:61:98:a4:41:55:ea:7b:67:55:43:3a:ad:8b:c5:73:
         5e:08:16:48:0e:d9:e2:77:c4:ec:6b:f3:b7:aa:0c:be:f8:e2:
         e8:79:5b:78:01:eb:f3:2f:30:9e:86:f7:d0:78:08:d4:f3:d0:
         98:8b:d1:5f:69:2f:01:d6:94:4b:37:65:03:61:a9:e1:87:bb:
         e9:51:1c:fd:0b:19:ab:ad:3e:85:f3:86:04:05:fb:0f:ce:b0:
         6b:86:8a:32:cc:66:fb:49:90:16:a6:25:ef:e1:b1:93:f0:5d:
         3f:98:93:21:96:ed:2e:44:41:95:61:6b:98:f3:77:2b:ba:bd:
         8c:1b:09:b9:96:a3:83:55:5a:a4:7b:ac:ae:85:1a:23:cc:f2:
         0e:09:42:c9:ef:da:b2:d6:be:c3:b2:07:a8:ec:76:7d:8f:e2:
         5b:0d:d6:3a:9e:7c:e5:db:ea:82:79:ed:1a:50:14:a4:1b:93:
         28:3d:fb:08:fe:4a:19:c9:5d:aa:73:3c:48:ed:c2:d5:d2:f2:
         af:5a:78:e4:ba:f1:6c:43:e9:4e:04:55:65:52:3b:35:42:c2:
         07:fb:14:c2:c5:f5:e8:7f:20:56:78:39:6f:d8:9f:7c:ce:ac:
         0b:d6:5a:c8:f7:25:33:c0:70:ad:f5:5b:a8:6c:b3:a3:cd:a6:
         cf:bd:1f:37:d6:e4:d5:99:e4:a8:0e:b2:e9:72:1d:7b:4d:12:
         fd:ad:71:68:36:2f:64:86:dd:e4:42:44:8c:f4:37:d0:78:ef:
         19:b2:57:f4:7b:54:bf:00:e0:b8:66:39:92:b1:4a:7e:16:62:
         78:bf:8a:50:fe:ac:b3:2b:08:b3:16:c4:fa:d9:6d:b6:b4:73:
         a5:be:42:7c:34:4c:bc:4d:9f:27:65:69:4c:4f:fa:1a:76:02:
         ca:f7:2e:a1:a3:c1:1e:45:ea:86:21:5a:61:12:23:3b:c3:85:
         75:fe:05:33:b4:9b:44:42:26:ad:f3:0b:79:5c:61:1d:11:f3:
         41:84:d2:a6:24:0c:5f:86:31:49:9d:59:1f:9c:4a:5d:36:29:
         e5:a0:93:17:d9:bc:f9:42:6e:6b:55:5e:15:f8:fa:e2:b7:2a:
         06:bd:27:a7:a3:4a:68:96:cd:5d:9f:91:61:1b:75:87:ed:ba:
         d5:6f:6b:75:b8:13:0d:6f
-----BEGIN CERTIFICATE-----
MIIFDjCCAvagAwIBAgIQd67H3QrXvgvH3+O/QuYJiDANBgkqhkiG9w0BAQsFADAi
MSAwHgYDVQQDDBdNeUhvbWUgQ3liZXJTZWN1cml0eSBHMjAeFw0yMTA0MjkyMjI4
NTRaFw0yMzA4MDIyMjI4NTRaMFUxCzAJBgNVBAYTAkVTMRIwEAYDVQQHDAlCYXJj
ZWxvbmExEjAQBgNVBAoMCUN5YmVySG9tZTEeMBwGA1UEAwwVZmlsZWJlYXQuY3li
ZXJob21lLmVzMIIBIjANBgkqhkiG9w0BAQEFAAOCAQ8AMIIBCgKCAQEA4j54mMul
IzeiRjwpKzGZES40cyalHqqEP0p3pRG1D91h3IeDnUHDAv+q6tFfC1a6nOqBkHgX
xf/4DH2BgkWy2FOCEhueCfwuZX1BP5Pp78kmE0oY/KaEDgLN+sBew2MQwc/W3z/1
u7vQwnsDYrK38V3/sE3p+mSaNbQhIuGB0fCtLSZxp2NYInb3iyyz7bOqjvd5104F
oJ52qeXmLQx7AhHqB+tn+IiUpKZal7B+uwty3BsZvQf4jqtKnQiZqaBkJslVjYeW
OQ+EfHFehxq2EZefGDlViF8oSTgp/aT3+Pvb8/orqSxwPCzfHFVkc66jQWmrFdn+
aAbmjn6sGgl3CwIDAQABo4IBCzCCAQcwLAYDVR0fBCUwIzAhoB+gHYYbaHR0cDov
L2NybC5ob2dhci9wa2kvY2EuY3JsMAkGA1UdEwQCMAAwHQYDVR0OBBYEFKfD3+Wu
LNhEMMhPYdX3IcaYYuz1MF8GA1UdIwRYMFaAFGAmBr0zJtB3P34Iy2eK5/Pvpnav
oSukKTAnMSUwIwYDVQQDDBxNeUhvbWUgQ3liZXJTZWN1cml0eSBSb290IENBghEA
5eVLCpwDpcETQyFhU4pmlDAdBgNVHSUEFjAUBggrBgEFBQcDAQYIKwYBBQUHAwIw
CwYDVR0PBAQDAgWgMCAGA1UdEQQZMBeCFSoud2F6dWgtY2x1c3Rlci53YXp1aDAN
BgkqhkiG9w0BAQsFAAOCAgEAo5t6RSGDOgouETQSCAdgw4qBGEUKWLgWuJxZ4qcS
qTdcEey6Pwgxwn3bBJ5qwW3yN1a5sRJaJJQKdsqkcAffuyXaIfPeZDKCMyHEYZik
QVXqe2dVQzqti8VzXggWSA7Z4nfE7Gvzt6oMvvji6HlbeAHr8y8wnob30HgI1PPQ
mIvRX2kvAdaUSzdlA2Gp4Ye76VEc/QsZq60+hfOGBAX7D86wa4aKMsxm+0mQFqYl
7+Gxk/BdP5iTIZbtLkRBlWFrmPN3K7q9jBsJuZajg1VapHusroUaI8zyDglCye/a
sta+w7IHqOx2fY/iWw3WOp585dvqgnntGlAUpBuTKD37CP5KGcldqnM8SO3C1dLy
r1p45LrxbEPpTgRVZVI7NULCB/sUwsX16H8gVng5b9iffM6sC9ZayPclM8BwrfVb
qGyzo82mz70fN9bk1ZnkqA6y6XIde00S/a1xaDYvZIbd5EJEjPQ30HjvGbJX9HtU
vwDguGY5krFKfhZieL+KUP6ssysIsxbE+tlttrRzpb5CfDRMvE2fJ2VpTE/6GnYC
yvcuoaPBHkXqhiFaYRIjO8OFdf4FM7SbREImrfMLeVxhHRHzQYTSpiQMX4YxSZ1Z
H5xKXTYp5aCTF9m8+UJua1VeFfj64rcqBr0np6NKaJbNXZ+RYRt1h+261W9rdbgT
DW8=
-----END CERTIFICATE-----
