Certificate:
    Data:
        Version: 3 (0x2)
        Serial Number:
            50:d3:60:f4:5e:a0:81:c3:05:44:af:d4:8b:d8:d6:57
        Signature Algorithm: sha256WithRSAEncryption
        Issuer: CN=MyHome CyberSecurity G2
        Validity
            Not Before: Apr 28 12:19:45 2021 GMT
            Not After : Aug  1 12:19:45 2023 GMT
        Subject: C=ES, L=Barcelona, O=CyberHome Ltd, CN=kibana
        Subject Public Key Info:
            Public Key Algorithm: rsaEncryption
                RSA Public-Key: (2048 bit)
                Modulus:
                    00:c1:5a:76:9f:08:6f:d1:ca:8c:f0:50:af:cf:d0:
                    b8:64:98:ea:f4:61:e0:1d:a1:33:ac:f3:9b:08:cf:
                    fd:a7:be:89:c5:0f:17:11:ae:a1:d5:5d:87:11:c5:
                    ae:bc:cd:8d:18:3b:90:2b:16:10:d3:a0:d9:5c:0a:
                    1b:fa:9c:6f:d3:03:6e:36:64:1f:c8:26:e6:7c:14:
                    2f:1b:f1:80:6d:2d:0c:80:92:4d:a2:f9:83:34:c5:
                    85:d1:8d:81:ba:16:ae:19:27:fc:9d:f6:b3:41:cb:
                    4f:60:71:c6:3c:ea:63:43:11:29:57:e5:aa:43:9f:
                    6f:1a:6f:80:a0:0a:e9:22:20:5b:be:0d:db:4f:d4:
                    f3:35:12:c4:ca:45:68:94:35:f7:4a:f5:31:a7:bf:
                    51:a9:cf:ae:8f:fb:74:ac:4f:37:b5:4e:ab:3d:c5:
                    53:5e:17:33:b3:e6:91:87:f9:bd:a0:1c:47:cd:fd:
                    7c:d1:e0:51:b7:53:fe:b1:2b:50:c2:ed:c9:55:82:
                    45:6b:8e:99:de:6f:aa:1b:2f:01:13:88:53:99:e6:
                    d5:b2:56:4d:34:26:bf:f7:df:b1:ad:13:eb:18:32:
                    a2:77:a5:86:62:b3:dc:3f:bf:4f:28:8c:6b:f9:7c:
                    65:d1:a3:d8:9d:d5:7f:eb:51:fe:5a:5a:e6:40:e3:
                    4b:f7
                Exponent: 65537 (0x10001)
        X509v3 extensions:
            X509v3 CRL Distribution Points: 

                Full Name:
                  URI:http://crl.hogar/pki/ca.crl

            X509v3 Basic Constraints: 
                CA:FALSE
            X509v3 Subject Key Identifier: 
                59:A3:DA:30:EC:02:B1:00:E5:5D:A2:C5:F0:ED:F9:49:FA:7C:BC:E3
            X509v3 Authority Key Identifier: 
                keyid:60:26:06:BD:33:26:D0:77:3F:7E:08:CB:67:8A:E7:F3:EF:A6:76:AF
                DirName:/CN=MyHome CyberSecurity Root CA
                serial:E5:E5:4B:0A:9C:03:A5:C1:13:43:21:61:53:8A:66:94

            X509v3 Extended Key Usage: 
                TLS Web Server Authentication
            X509v3 Key Usage: 
                Digital Signature, Key Encipherment
            X509v3 Subject Alternative Name: 
                DNS:kibana.cyberhome.es, DNS:wazuh-kibana.cyberhome.es, IP Address:192.168.80.30
    Signature Algorithm: sha256WithRSAEncryption
         a1:4c:7c:d5:a9:c4:79:f8:66:ea:63:4f:49:58:5b:0e:8c:93:
         3b:55:89:6e:f4:37:b6:f5:9c:ff:0b:8d:40:40:2c:0e:1f:84:
         34:52:69:03:10:0a:60:31:34:f3:d1:5b:44:ab:64:01:0f:54:
         e6:a4:ad:0e:68:58:25:2d:91:da:78:bd:82:18:6f:a9:5d:31:
         e9:85:b6:c7:eb:a0:b3:a5:9b:e6:89:66:a3:59:bf:7c:5b:e4:
         d5:c1:51:9c:cc:5b:a9:6b:a6:e2:98:f9:9e:7c:0b:09:1a:45:
         37:bb:4b:a0:00:79:7e:e2:76:7f:07:20:41:54:59:a1:b2:2e:
         9d:b1:c9:da:73:5c:5c:ff:85:0e:63:41:99:74:1e:a9:ee:52:
         33:65:73:70:f7:75:ab:af:b8:e7:d4:3a:00:15:70:5b:eb:f5:
         38:28:0a:27:2e:9c:bb:27:3c:85:77:8b:ba:74:e7:4e:31:e8:
         df:44:b0:7a:f5:e6:34:1c:22:3d:43:cf:97:6b:df:af:84:1c:
         f3:dc:ca:69:83:75:f8:c6:f7:ec:fa:48:80:6b:d1:9d:ce:52:
         d1:45:04:16:97:3b:95:b7:74:93:41:9f:a1:31:7f:02:5a:71:
         b7:be:ab:fb:1e:65:d1:8b:66:e4:7a:0e:4b:5a:37:14:e8:cc:
         a8:6d:ef:76:67:ab:51:53:c5:18:37:a8:53:89:f4:a5:1a:8b:
         7e:b6:3e:0e:8e:48:12:26:57:92:c1:7a:dd:dd:67:77:94:e3:
         49:50:f0:ac:a0:fd:fa:49:90:45:a6:b7:c2:1f:24:a5:97:96:
         3f:41:60:7a:8c:d0:34:12:ea:53:51:ec:0d:b4:46:79:5b:c9:
         0a:c7:41:b4:ca:78:46:ab:09:eb:39:1c:70:a8:f8:26:cd:dc:
         a1:28:79:60:cc:b7:c1:73:83:2f:6f:07:87:aa:c1:b0:70:f1:
         76:fd:9d:f8:66:de:2a:3f:5d:8c:64:65:57:d7:e6:d7:a5:ff:
         0c:89:ae:33:a1:cd:1a:b8:8b:3d:e4:d7:e4:a6:35:4c:e1:c8:
         66:37:d6:27:66:26:c0:c5:10:60:12:8b:39:ab:bb:20:8d:8f:
         21:1e:64:38:25:cc:c2:eb:d5:c9:29:55:a5:b1:0e:1c:3e:dd:
         4c:ac:b8:51:12:3d:b2:41:59:fc:b3:a7:56:b3:9e:4e:53:c4:
         b0:85:e0:01:bf:85:77:37:c7:49:51:60:a9:57:cf:44:b1:ca:
         a8:b0:f0:44:f0:03:0e:9e:3d:6d:f9:b5:99:dd:ca:1d:e8:89:
         23:f0:1b:3c:8b:d5:f8:82:d0:1a:2e:4a:52:b2:3e:ce:a4:8a:
         a4:c7:2f:ab:ba:d5:7e:c5
-----BEGIN CERTIFICATE-----
MIIFGDCCAwCgAwIBAgIQUNNg9F6ggcMFRK/Ui9jWVzANBgkqhkiG9w0BAQsFADAi
MSAwHgYDVQQDDBdNeUhvbWUgQ3liZXJTZWN1cml0eSBHMjAeFw0yMTA0MjgxMjE5
NDVaFw0yMzA4MDExMjE5NDVaMEoxCzAJBgNVBAYTAkVTMRIwEAYDVQQHDAlCYXJj
ZWxvbmExFjAUBgNVBAoMDUN5YmVySG9tZSBMdGQxDzANBgNVBAMMBmtpYmFuYTCC
ASIwDQYJKoZIhvcNAQEBBQADggEPADCCAQoCggEBAMFadp8Ib9HKjPBQr8/QuGSY
6vRh4B2hM6zzmwjP/ae+icUPFxGuodVdhxHFrrzNjRg7kCsWENOg2VwKG/qcb9MD
bjZkH8gm5nwULxvxgG0tDICSTaL5gzTFhdGNgboWrhkn/J32s0HLT2BxxjzqY0MR
KVflqkOfbxpvgKAK6SIgW74N20/U8zUSxMpFaJQ190r1Mae/UanPro/7dKxPN7VO
qz3FU14XM7PmkYf5vaAcR839fNHgUbdT/rErUMLtyVWCRWuOmd5vqhsvAROIU5nm
1bJWTTQmv/ffsa0T6xgyonelhmKz3D+/TyiMa/l8ZdGj2J3Vf+tR/lpa5kDjS/cC
AwEAAaOCASAwggEcMCwGA1UdHwQlMCMwIaAfoB2GG2h0dHA6Ly9jcmwuaG9nYXIv
cGtpL2NhLmNybDAJBgNVHRMEAjAAMB0GA1UdDgQWBBRZo9ow7AKxAOVdosXw7flJ
+ny84zBfBgNVHSMEWDBWgBRgJga9MybQdz9+CMtniufz76Z2r6ErpCkwJzElMCMG
A1UEAwwcTXlIb21lIEN5YmVyU2VjdXJpdHkgUm9vdCBDQYIRAOXlSwqcA6XBE0Mh
YVOKZpQwEwYDVR0lBAwwCgYIKwYBBQUHAwEwCwYDVR0PBAQDAgWgMD8GA1UdEQQ4
MDaCE2tpYmFuYS5jeWJlcmhvbWUuZXOCGXdhenVoLWtpYmFuYS5jeWJlcmhvbWUu
ZXOHBMCoUB4wDQYJKoZIhvcNAQELBQADggIBAKFMfNWpxHn4ZupjT0lYWw6MkztV
iW70N7b1nP8LjUBALA4fhDRSaQMQCmAxNPPRW0SrZAEPVOakrQ5oWCUtkdp4vYIY
b6ldMemFtsfroLOlm+aJZqNZv3xb5NXBUZzMW6lrpuKY+Z58CwkaRTe7S6AAeX7i
dn8HIEFUWaGyLp2xydpzXFz/hQ5jQZl0HqnuUjNlc3D3dauvuOfUOgAVcFvr9Tgo
CicunLsnPIV3i7p0504x6N9EsHr15jQcIj1Dz5dr36+EHPPcymmDdfjG9+z6SIBr
0Z3OUtFFBBaXO5W3dJNBn6ExfwJacbe+q/seZdGLZuR6DktaNxTozKht73Znq1FT
xRg3qFOJ9KUai362Pg6OSBImV5LBet3dZ3eU40lQ8Kyg/fpJkEWmt8IfJKWXlj9B
YHqM0DQS6lNR7A20RnlbyQrHQbTKeEarCes5HHCo+CbN3KEoeWDMt8Fzgy9vB4eq
wbBw8Xb9nfhm3io/XYxkZVfX5tel/wyJrjOhzRq4iz3k1+SmNUzhyGY31idmJsDF
EGASizmruyCNjyEeZDglzMLr1ckpVaWxDhw+3UysuFESPbJBWfyzp1aznk5TxLCF
4AG/hXc3x0lRYKlXz0Sxyqiw8ETwAw6ePW35tZndyh3oiSPwGzyL1fiC0BouSlKy
Ps6kiqTHL6u61X7F
-----END CERTIFICATE-----
