Certificate:
    Data:
        Version: 3 (0x2)
        Serial Number:
            39:42:6e:b5:3f:38:67:89:f6:61:09:7e:e6:86:b5:36
        Signature Algorithm: sha256WithRSAEncryption
        Issuer: CN=MyHome CyberSecurity G2
        Validity
            Not Before: Apr 29 21:37:22 2021 GMT
            Not After : Aug  2 21:37:22 2023 GMT
        Subject: C=ES, L=Barcelona, O=CyberHome Ltd, CN=*.wazuh-elasticsearch
        Subject Public Key Info:
            Public Key Algorithm: rsaEncryption
                RSA Public-Key: (2048 bit)
                Modulus:
                    00:ca:97:3e:f1:b2:c0:89:ba:ea:0d:94:01:cc:85:
                    53:22:a2:91:72:fd:3a:41:c7:38:37:b3:77:1a:b9:
                    00:38:69:e9:71:06:d6:da:ed:99:46:b4:07:d3:b8:
                    00:84:89:71:d1:25:36:8a:ac:26:18:15:a9:61:0f:
                    29:05:32:cd:20:a6:cd:03:cd:4c:64:95:ad:36:01:
                    bd:55:1c:49:cd:a3:d5:32:b6:50:c8:92:0b:2c:4f:
                    34:b6:db:25:d9:32:0b:95:af:97:4c:6a:43:1b:6a:
                    a6:23:8d:2c:89:4c:fe:e4:ab:22:6d:45:90:57:ad:
                    01:bd:a7:ef:93:f0:d1:eb:07:b0:b8:43:30:b1:57:
                    30:fb:cb:f8:c4:d1:37:d6:e0:c8:3a:51:72:e7:41:
                    e2:6d:01:c0:b2:cf:7c:fa:5a:34:34:43:5e:8a:56:
                    a8:53:e1:04:12:93:4b:34:d7:d6:1b:33:f2:39:54:
                    20:2a:0b:c3:da:e4:f9:61:1e:20:4e:dc:14:7d:cb:
                    3b:08:b0:c7:0a:57:d4:b9:2a:fb:01:33:e1:7b:21:
                    18:67:4d:2f:c2:b8:3e:12:05:72:41:15:2e:8c:04:
                    74:db:a7:9a:a2:f2:21:37:a1:17:22:59:b9:05:fe:
                    9e:7e:43:0e:77:d5:b6:b1:71:44:1f:fa:ae:f3:f9:
                    c7:e5
                Exponent: 65537 (0x10001)
        X509v3 extensions:
            X509v3 CRL Distribution Points: 

                Full Name:
                  URI:http://crl.hogar/pki/ca.crl

            X509v3 Basic Constraints: 
                CA:FALSE
            X509v3 Subject Key Identifier: 
                81:3E:01:DC:01:9B:06:F0:B3:6E:2C:1F:13:69:6B:50:7F:F2:A7:A7
            X509v3 Authority Key Identifier: 
                keyid:60:26:06:BD:33:26:D0:77:3F:7E:08:CB:67:8A:E7:F3:EF:A6:76:AF
                DirName:/CN=MyHome CyberSecurity Root CA
                serial:E5:E5:4B:0A:9C:03:A5:C1:13:43:21:61:53:8A:66:94

            X509v3 Extended Key Usage: 
                TLS Web Server Authentication, TLS Web Client Authentication
            X509v3 Key Usage: 
                Digital Signature, Key Encipherment
            X509v3 Subject Alternative Name: 
                DNS:elasticsearch.cyberhome.es, DNS:*.elasticsearch.cyberhome.es, IP Address:192.168.80.30
    Signature Algorithm: sha256WithRSAEncryption
         8c:21:10:47:45:e6:86:b7:45:24:f9:a7:9c:09:9e:e2:bf:0c:
         5b:bf:b2:5f:0a:b6:71:4e:74:62:73:47:2c:a3:aa:78:b1:05:
         fd:a1:53:60:0a:9f:5b:72:54:84:f4:38:37:7c:1a:9d:7c:98:
         7e:d8:16:0c:8c:a8:b3:c5:5c:8f:e1:8d:05:5d:15:ac:38:bd:
         a3:cb:a8:15:a9:6b:d1:cb:8c:92:6c:7f:00:a5:37:42:24:25:
         da:b0:91:13:cb:a0:00:9c:16:3f:63:f6:2e:ec:20:a1:7b:2f:
         15:56:4e:6e:15:c4:8e:89:56:f3:5a:44:13:65:ae:13:ff:42:
         1a:4a:cf:44:df:a5:1c:18:21:56:5a:22:18:25:4a:fc:b7:83:
         5e:75:1a:2d:07:61:9f:b3:5e:79:43:60:3a:d0:1a:45:11:d2:
         4f:aa:4e:05:b8:7b:49:10:8c:ec:e2:91:fc:9d:6f:b5:27:51:
         6d:43:81:3c:73:74:c2:79:00:ad:5c:48:30:47:aa:f4:e9:81:
         4e:bb:37:91:9e:71:a8:97:72:3f:2e:0a:78:6a:d5:e8:4f:ad:
         ce:64:1c:d8:b3:01:ac:b2:a3:74:da:6a:3d:43:d6:b6:6e:d4:
         24:32:a0:5b:c8:71:3c:20:4d:f8:53:9f:4a:7c:b6:05:9d:59:
         61:e3:b3:3c:2b:3e:80:e0:70:fc:6e:76:c2:b0:ca:7b:6d:7c:
         b6:86:17:d6:1e:60:8c:f5:b4:88:bf:9d:38:06:aa:a0:2e:e7:
         3b:0b:cd:30:ee:37:cc:c4:d5:ee:35:6e:3b:71:c2:b4:cc:61:
         52:8f:93:f5:f3:fe:e3:75:1d:c3:15:77:7a:d8:d9:8f:fe:11:
         90:42:91:ae:b8:de:a2:f3:6c:b8:02:a7:8e:0f:ea:e7:a1:99:
         46:40:64:73:45:77:ea:7e:e9:63:f9:04:07:5c:cd:f6:33:93:
         05:1f:a7:f1:99:38:17:cd:20:9b:89:2f:45:68:ab:e1:c7:be:
         3b:96:10:64:bc:af:78:4b:57:6f:65:77:11:e1:1b:8d:70:53:
         c3:bf:ae:ed:0d:54:fc:c9:c2:47:8d:2d:a7:a4:ef:c5:a0:c8:
         1a:b3:1f:fe:f0:2f:e4:6f:7c:cf:49:ba:ea:da:5d:4c:32:c1:
         31:d3:cc:85:2c:67:0c:99:bf:b8:ce:66:77:5b:6a:68:a0:2a:
         61:f8:ed:32:e0:15:83:f3:2f:de:f2:39:a3:15:50:a2:2b:35:
         e7:03:51:c1:1f:84:44:04:ed:fd:5e:bd:6d:06:af:c1:54:50:
         7a:b9:73:eb:64:cc:fa:d7:bb:7d:7e:2d:d7:56:be:fa:e6:fd:
         7d:b2:80:77:dd:80:ab:65
-----BEGIN CERTIFICATE-----
MIIFOzCCAyOgAwIBAgIQOUJutT84Z4n2YQl+5oa1NjANBgkqhkiG9w0BAQsFADAi
MSAwHgYDVQQDDBdNeUhvbWUgQ3liZXJTZWN1cml0eSBHMjAeFw0yMTA0MjkyMTM3
MjJaFw0yMzA4MDIyMTM3MjJaMFkxCzAJBgNVBAYTAkVTMRIwEAYDVQQHDAlCYXJj
ZWxvbmExFjAUBgNVBAoMDUN5YmVySG9tZSBMdGQxHjAcBgNVBAMMFSoud2F6dWgt
ZWxhc3RpY3NlYXJjaDCCASIwDQYJKoZIhvcNAQEBBQADggEPADCCAQoCggEBAMqX
PvGywIm66g2UAcyFUyKikXL9OkHHODezdxq5ADhp6XEG1trtmUa0B9O4AISJcdEl
NoqsJhgVqWEPKQUyzSCmzQPNTGSVrTYBvVUcSc2j1TK2UMiSCyxPNLbbJdkyC5Wv
l0xqQxtqpiONLIlM/uSrIm1FkFetAb2n75Pw0esHsLhDMLFXMPvL+MTRN9bgyDpR
cudB4m0BwLLPfPpaNDRDXopWqFPhBBKTSzTX1hsz8jlUICoLw9rk+WEeIE7cFH3L
OwiwxwpX1Lkq+wEz4XshGGdNL8K4PhIFckEVLowEdNunmqLyITehFyJZuQX+nn5D
DnfVtrFxRB/6rvP5x+UCAwEAAaOCATQwggEwMCwGA1UdHwQlMCMwIaAfoB2GG2h0
dHA6Ly9jcmwuaG9nYXIvcGtpL2NhLmNybDAJBgNVHRMEAjAAMB0GA1UdDgQWBBSB
PgHcAZsG8LNuLB8TaWtQf/KnpzBfBgNVHSMEWDBWgBRgJga9MybQdz9+CMtniufz
76Z2r6ErpCkwJzElMCMGA1UEAwwcTXlIb21lIEN5YmVyU2VjdXJpdHkgUm9vdCBD
QYIRAOXlSwqcA6XBE0MhYVOKZpQwHQYDVR0lBBYwFAYIKwYBBQUHAwEGCCsGAQUF
BwMCMAsGA1UdDwQEAwIFoDBJBgNVHREEQjBAghplbGFzdGljc2VhcmNoLmN5YmVy
aG9tZS5lc4IcKi5lbGFzdGljc2VhcmNoLmN5YmVyaG9tZS5lc4cEwKhQHjANBgkq
hkiG9w0BAQsFAAOCAgEAjCEQR0XmhrdFJPmnnAme4r8MW7+yXwq2cU50YnNHLKOq
eLEF/aFTYAqfW3JUhPQ4N3wanXyYftgWDIyos8Vcj+GNBV0VrDi9o8uoFalr0cuM
kmx/AKU3QiQl2rCRE8ugAJwWP2P2LuwgoXsvFVZObhXEjolW81pEE2WuE/9CGkrP
RN+lHBghVloiGCVK/LeDXnUaLQdhn7NeeUNgOtAaRRHST6pOBbh7SRCM7OKR/J1v
tSdRbUOBPHN0wnkArVxIMEeq9OmBTrs3kZ5xqJdyPy4KeGrV6E+tzmQc2LMBrLKj
dNpqPUPWtm7UJDKgW8hxPCBN+FOfSny2BZ1ZYeOzPCs+gOBw/G52wrDKe218toYX
1h5gjPW0iL+dOAaqoC7nOwvNMO43zMTV7jVuO3HCtMxhUo+T9fP+43UdwxV3etjZ
j/4RkEKRrrjeovNsuAKnjg/q56GZRkBkc0V36n7pY/kEB1zN9jOTBR+n8Zk4F80g
m4kvRWir4ce+O5YQZLyveEtXb2V3EeEbjXBTw7+u7Q1U/MnCR40tp6TvxaDIGrMf
/vAv5G98z0m66tpdTDLBMdPMhSxnDJm/uM5md1tqaKAqYfjtMuAVg/Mv3vI5oxVQ
ois15wNRwR+ERATt/V69bQavwVRQerlz62TM+te7fX4t11a++ub9fbKAd92Aq2U=
-----END CERTIFICATE-----
