Certificate:
    Data:
        Version: 3 (0x2)
        Serial Number:
            e5:e5:4b:0a:9c:03:a5:c1:13:43:21:61:53:8a:66:94
        Signature Algorithm: sha256WithRSAEncryption
        Issuer: CN=MyHome CyberSecurity Root CA
        Validity
            Not Before: Apr 14 09:52:57 2021 GMT
            Not After : Apr 13 09:52:57 2026 GMT
        Subject: CN=MyHome CyberSecurity G2
        Subject Public Key Info:
            Public Key Algorithm: rsaEncryption
                RSA Public-Key: (4096 bit)
                Modulus:
                    00:c0:40:8d:74:aa:29:e7:b6:35:87:ff:bf:5e:b6:
                    a3:a5:71:43:c1:d1:f8:e0:ab:50:55:cf:b1:56:cf:
                    37:38:a7:1e:c9:35:0c:50:85:f5:8a:4c:1e:2c:87:
                    ff:c4:38:40:f0:e7:d3:28:01:ab:c7:b5:41:f2:28:
                    7d:da:ba:14:17:26:3b:4e:ac:b3:ce:7a:01:3e:7d:
                    37:39:8f:4f:f8:55:26:23:9b:d3:a9:f2:70:2f:26:
                    4d:fb:7b:4b:e1:0b:75:36:29:ee:64:06:32:25:ba:
                    0a:fa:32:59:54:43:5d:29:d5:58:d9:e9:c1:7b:4f:
                    ca:51:44:79:75:7e:e8:34:2a:93:9d:bb:b0:b2:f6:
                    25:a3:25:df:3e:2a:95:c2:11:28:74:b9:27:fd:83:
                    c3:44:65:65:d8:8a:dd:b5:2c:62:66:cc:c8:0e:03:
                    d6:42:64:1a:f2:5e:0f:b3:8d:3e:a3:b8:a2:18:8e:
                    f4:e5:19:c4:bd:d5:3f:96:b7:b6:06:70:41:37:99:
                    76:6b:62:29:c9:22:e5:cd:64:49:13:21:d0:2a:70:
                    89:00:3f:9b:cb:b4:64:bf:57:29:01:9d:c2:8c:bd:
                    9a:55:51:72:4a:fd:14:61:a0:3a:81:51:4c:5c:ff:
                    cc:9f:e8:ee:4c:0e:f0:65:e6:da:d3:5e:05:ae:6c:
                    8d:93:7b:d7:5d:7b:a5:6c:26:16:75:e7:29:63:2b:
                    95:ae:4a:35:e0:17:9d:99:18:eb:0d:e1:d1:d7:da:
                    31:9c:8d:56:4e:0b:bc:59:c7:db:cd:f8:87:43:9b:
                    a6:f0:84:ac:e5:93:ed:74:37:77:ff:07:28:da:5c:
                    0e:4e:17:b2:0b:c9:ab:61:db:57:67:57:f1:09:d0:
                    ad:f9:fb:d2:ff:9b:6b:20:3a:53:ea:15:17:67:06:
                    75:aa:52:d1:d9:88:1e:b2:47:4e:92:6f:9d:3d:1d:
                    da:af:d8:56:50:30:6b:99:02:ad:4f:4a:b3:8d:89:
                    d7:4b:b7:51:de:1c:98:a1:36:68:af:a7:0b:67:55:
                    27:71:76:7f:e4:7b:ef:d2:c9:cc:90:03:79:e3:78:
                    b3:26:cb:41:48:a3:e8:d7:79:b4:44:4d:7b:2b:e0:
                    83:02:e6:30:29:ce:c9:68:e4:56:09:38:fe:af:2e:
                    a5:9b:8e:46:16:c5:57:8c:df:a7:e0:d2:73:77:41:
                    e0:07:32:5d:16:91:24:1d:70:5a:97:9f:4e:82:d1:
                    c6:89:5f:24:68:29:6f:43:fb:17:ad:a8:b4:91:40:
                    b1:65:83:31:3b:8d:36:f5:a5:23:6b:d3:e5:31:7e:
                    89:1d:ef:63:e0:cf:b4:51:0d:ae:c8:64:28:5e:68:
                    61:ad:df
                Exponent: 65537 (0x10001)
        X509v3 extensions:
            X509v3 CRL Distribution Points: 

                Full Name:
                  URI:http://crl.hogar/pki/ca.crl

            X509v3 Basic Constraints: 
                CA:TRUE
            X509v3 Subject Key Identifier: 
                60:26:06:BD:33:26:D0:77:3F:7E:08:CB:67:8A:E7:F3:EF:A6:76:AF
            X509v3 Authority Key Identifier: 
                keyid:91:14:3E:B2:83:05:CC:72:85:CD:55:38:EA:31:AC:7B:25:A2:EB:CB
                DirName:/CN=MyHome CyberSecurity Root CA
                serial:46:37:39:04:AE:83:6E:1A:A1:CD:3C:1F:4B:5C:3A:53:BC:DA:62:93

            X509v3 Key Usage: 
                Certificate Sign, CRL Sign
    Signature Algorithm: sha256WithRSAEncryption
         a3:e5:20:01:34:1f:ed:cc:dd:08:cd:e3:62:97:33:37:b7:5e:
         c9:7e:0f:33:4e:4b:f2:10:83:28:54:0b:6c:a9:34:3f:76:c5:
         9b:3c:a0:23:c5:bc:e7:10:1b:d8:1a:4d:12:7e:76:1c:a5:be:
         75:b6:d2:a6:57:4f:ba:16:21:04:8d:7b:9f:4e:cb:87:8b:bd:
         8b:b9:c2:12:be:1b:35:74:90:06:c4:3a:d4:94:6b:55:d6:8c:
         be:d3:06:e6:a4:98:75:e1:80:3b:74:dd:f5:9b:7c:fa:80:61:
         c9:17:f0:3c:8a:cc:d0:64:1f:d3:06:ab:2d:3f:b2:d0:d3:5a:
         87:7e:08:1a:7c:16:05:e2:60:f6:2c:74:d8:0a:52:52:11:ca:
         44:8a:d8:51:5c:af:39:0a:e6:66:b4:28:fc:a8:6a:dd:ee:69:
         6b:d0:e2:33:64:fa:16:02:a6:b8:53:b8:81:f9:61:72:cc:53:
         3c:0c:6f:ee:98:7e:8d:fe:b0:a7:83:12:76:e5:f4:d8:f3:af:
         1e:e3:ff:a5:85:0f:ba:16:73:2c:72:72:d0:cf:38:d9:56:87:
         e9:2e:42:08:77:41:6b:a6:21:7d:1b:ff:60:4f:0d:64:a0:56:
         8d:3e:c9:0f:13:4d:a0:38:5a:28:7f:a9:a3:3a:f9:08:bf:ed:
         e1:38:2d:a1:f2:85:bf:c8:94:68:66:89:4e:32:3f:d9:bf:42:
         52:2b:80:b1:bd:22:8b:ad:dd:77:15:cd:0f:38:b0:ca:56:c7:
         ad:fa:8c:47:95:c7:01:27:ae:37:6d:44:fa:dd:eb:7a:0d:88:
         0e:b9:85:11:00:44:7a:51:c5:cb:b3:66:a5:84:51:73:16:82:
         8c:23:92:1c:13:96:16:cc:2a:23:5d:ef:72:b8:48:0e:6d:54:
         be:ff:64:b0:76:cf:e7:66:ca:30:8f:2b:38:3c:e3:83:a9:12:
         16:95:08:e4:4c:e7:94:7c:31:ec:aa:ee:f4:7b:b0:50:30:13:
         42:b8:c5:b6:15:23:49:ea:e7:91:5f:92:1b:2a:f4:33:f8:2e:
         74:61:ad:54:fd:a6:57:69:40:5e:fe:fc:29:0a:d8:0f:57:16:
         1d:8f:30:60:b8:21:d4:2b:6b:c2:61:78:1a:f6:48:fa:a7:46:
         ae:9b:f7:5f:19:35:9e:46:65:11:45:9b:95:97:1f:5d:05:1c:
         e9:c4:69:3a:c8:8a:97:0a:20:16:d0:67:79:87:87:1b:16:64:
         99:72:fd:3f:65:63:2e:a1:e5:39:d5:06:30:88:31:7b:dc:ad:
         f9:d7:d1:2d:fd:d5:ca:68:65:d7:ce:bb:d0:0f:2a:76:e2:f5:
         67:ab:77:80:51:f6:1e:50
-----BEGIN CERTIFICATE-----
MIIFpDCCA4ygAwIBAgIRAOXlSwqcA6XBE0MhYVOKZpQwDQYJKoZIhvcNAQELBQAw
JzElMCMGA1UEAwwcTXlIb21lIEN5YmVyU2VjdXJpdHkgUm9vdCBDQTAeFw0yMTA0
MTQwOTUyNTdaFw0yNjA0MTMwOTUyNTdaMCIxIDAeBgNVBAMMF015SG9tZSBDeWJl
clNlY3VyaXR5IEcyMIICIjANBgkqhkiG9w0BAQEFAAOCAg8AMIICCgKCAgEAwECN
dKop57Y1h/+/XrajpXFDwdH44KtQVc+xVs83OKceyTUMUIX1ikweLIf/xDhA8OfT
KAGrx7VB8ih92roUFyY7TqyzznoBPn03OY9P+FUmI5vTqfJwLyZN+3tL4Qt1Ninu
ZAYyJboK+jJZVENdKdVY2enBe0/KUUR5dX7oNCqTnbuwsvYloyXfPiqVwhEodLkn
/YPDRGVl2IrdtSxiZszIDgPWQmQa8l4Ps40+o7iiGI705RnEvdU/lre2BnBBN5l2
a2IpySLlzWRJEyHQKnCJAD+by7Rkv1cpAZ3CjL2aVVFySv0UYaA6gVFMXP/Mn+ju
TA7wZeba014FrmyNk3vXXXulbCYWdecpYyuVrko14BedmRjrDeHR19oxnI1WTgu8
WcfbzfiHQ5um8ISs5ZPtdDd3/wco2lwOTheyC8mrYdtXZ1fxCdCt+fvS/5trIDpT
6hUXZwZ1qlLR2YgeskdOkm+dPR3ar9hWUDBrmQKtT0qzjYnXS7dR3hyYoTZor6cL
Z1UncXZ/5Hvv0snMkAN543izJstBSKPo13m0RE17K+CDAuYwKc7JaORWCTj+ry6l
m45GFsVXjN+n4NJzd0HgBzJdFpEkHXBal59OgtHGiV8kaClvQ/sXrai0kUCxZYMx
O4029aUja9PlMX6JHe9j4M+0UQ2uyGQoXmhhrd8CAwEAAaOBzzCBzDAsBgNVHR8E
JTAjMCGgH6AdhhtodHRwOi8vY3JsLmhvZ2FyL3BraS9jYS5jcmwwDAYDVR0TBAUw
AwEB/zAdBgNVHQ4EFgQUYCYGvTMm0Hc/fgjLZ4rn8++mdq8wYgYDVR0jBFswWYAU
kRQ+soMFzHKFzVU46jGseyWi68uhK6QpMCcxJTAjBgNVBAMMHE15SG9tZSBDeWJl
clNlY3VyaXR5IFJvb3QgQ0GCFEY3OQSug24aoc08H0tcOlO82mKTMAsGA1UdDwQE
AwIBBjANBgkqhkiG9w0BAQsFAAOCAgEAo+UgATQf7czdCM3jYpczN7deyX4PM05L
8hCDKFQLbKk0P3bFmzygI8W85xAb2BpNEn52HKW+dbbSpldPuhYhBI17n07Lh4u9
i7nCEr4bNXSQBsQ61JRrVdaMvtMG5qSYdeGAO3Td9Zt8+oBhyRfwPIrM0GQf0war
LT+y0NNah34IGnwWBeJg9ix02ApSUhHKRIrYUVyvOQrmZrQo/Khq3e5pa9DiM2T6
FgKmuFO4gflhcsxTPAxv7ph+jf6wp4MSduX02POvHuP/pYUPuhZzLHJy0M842VaH
6S5CCHdBa6YhfRv/YE8NZKBWjT7JDxNNoDhaKH+pozr5CL/t4TgtofKFv8iUaGaJ
TjI/2b9CUiuAsb0ii63ddxXNDziwylbHrfqMR5XHASeuN21E+t3reg2IDrmFEQBE
elHFy7NmpYRRcxaCjCOSHBOWFswqI13vcrhIDm1Uvv9ksHbP52bKMI8rODzjg6kS
FpUI5EznlHwx7Kru9HuwUDATQrjFthUjSernkV+SGyr0M/gudGGtVP2mV2lAXv78
KQrYD1cWHY8wYLgh1CtrwmF4GvZI+qdGrpv3Xxk1nkZlEUWblZcfXQUc6cRpOsiK
lwogFtBneYeHGxZkmXL9P2VjLqHlOdUGMIgxe9yt+dfRLf3Vymhl18670A8qduL1
Z6t3gFH2HlA=
-----END CERTIFICATE-----
